; Function Attrs: nofree norecurse nosync nounwind memory(read, argmem: readwrite, inaccessiblemem: none) uwtable
define internal void @fweight_row8(ptr noundef readonly captures(none) %0, ptr noundef writeonly captures(none) %1, ptr noundef readonly captures(none) %2, i32 noundef %3, i32 noundef %4, i32 noundef %5, i32 noundef %6, i32 noundef %7, ptr noundef readonly captures(none) %8) #6 {
  %10 = icmp sgt i32 %3, 0
  br i1 %10, label %.lr.ph96, label %._crit_edge97

.lr.ph96:                                         ; preds = %9
  %.079 = add nuw nsw i32 %4, 1
  %11 = icmp sgt i32 %4, 0
  %12 = icmp slt i32 %.079, %5
  %13 = select i1 %11, i1 %12, i1 false
  br i1 %13, label %.lr.ph.us.preheader, label %.lr.ph96.split.preheader

.lr.ph96.split.preheader:                         ; preds = %.lr.ph96
  %wide.trip.count = zext nneg i32 %3 to i64
  br label %.lr.ph96.split

.lr.ph.us.preheader:                              ; preds = %.lr.ph96
  %14 = zext nneg i32 %4 to i64
  %15 = add nuw nsw i64 %14, 1
  %wide.trip.count110 = zext nneg i32 %3 to i64
  br label %.lr.ph.us

.lr.ph.us:                                        ; preds = %.lr.ph.us.preheader, %._crit_edge.us
  %indvars.iv107 = phi i64 [ 0, %.lr.ph.us.preheader ], [ %indvars.iv.next108, %._crit_edge.us ]
  %16 = getelementptr inbounds nuw i8, ptr %0, i64 %indvars.iv107
  %17 = load i8, ptr %16, align 1, !tbaa !80
  %18 = zext i8 %17 to i32
  %19 = uitofp i8 %17 to float
  br label %20

20:                                               ; preds = %.lr.ph.us, %47
  %indvars.iv102 = phi i64 [ %15, %.lr.ph.us ], [ %indvars.iv.next103, %47 ]
  %indvars.iv100 = phi i64 [ %14, %.lr.ph.us ], [ %indvars.iv.next101, %47 ]
  %.06584.us = phi float [ 1.000000e+00, %.lr.ph.us ], [ %52, %47 ]
  %.06683.us = phi float [ %19, %.lr.ph.us ], [ %51, %47 ]
  %.06882.us = phi i32 [ 0, %.lr.ph.us ], [ %28, %47 ]
  %.06981.us = phi i32 [ 0, %.lr.ph.us ], [ %44, %47 ]
  %indvars.iv.next101 = add nsw i64 %indvars.iv100, -1
  %21 = getelementptr inbounds nuw ptr, ptr %2, i64 %indvars.iv.next101
  %22 = load ptr, ptr %21, align 8, !tbaa !52
  %23 = getelementptr inbounds nuw i8, ptr %22, i64 %indvars.iv107
  %24 = load i8, ptr %23, align 1, !tbaa !80
  %25 = zext i8 %24 to i32
  %26 = sub nsw i32 %18, %25
  %27 = tail call i32 @llvm.abs.i32(i32 %26, i1 true)
  %28 = add i32 %27, %.06882.us
  %29 = icmp ugt i32 %27, %6
  %30 = icmp ugt i32 %28, %7
  %or.cond.us = select i1 %29, i1 true, i1 %30
  br i1 %or.cond.us, label %._crit_edge.us, label %31

31:                                               ; preds = %20
  %32 = uitofp i8 %24 to float
  %33 = getelementptr inbounds nuw float, ptr %8, i64 %indvars.iv.next101
  %34 = load float, ptr %33, align 4, !tbaa !69
  %35 = tail call nsz float @llvm.fmuladd.f32(float %32, float %34, float %.06683.us)
  %36 = fadd nsz float %.06584.us, %34
  %37 = getelementptr inbounds nuw ptr, ptr %2, i64 %indvars.iv102
  %38 = load ptr, ptr %37, align 8, !tbaa !52
  %39 = getelementptr inbounds nuw i8, ptr %38, i64 %indvars.iv107
  %40 = load i8, ptr %39, align 1, !tbaa !80
  %41 = zext i8 %40 to i32
  %42 = sub nsw i32 %18, %41
  %43 = tail call i32 @llvm.abs.i32(i32 %42, i1 true)
  %44 = add i32 %43, %.06981.us
  %45 = icmp ugt i32 %43, %6
  %46 = icmp ugt i32 %44, %7
  %or.cond78.us = select i1 %45, i1 true, i1 %46
  br i1 %or.cond78.us, label %._crit_edge.us, label %47

47:                                               ; preds = %31
  %48 = uitofp i8 %40 to float
  %49 = getelementptr inbounds nuw float, ptr %8, i64 %indvars.iv102
  %50 = load float, ptr %49, align 4, !tbaa !69
  %51 = tail call nsz float @llvm.fmuladd.f32(float %48, float %50, float %35)
  %52 = fadd nsz float %36, %50
  %indvars.iv.next103 = add nuw nsw i64 %indvars.iv102, 1
  %53 = icmp sgt i64 %indvars.iv100, 1
  %54 = trunc nuw i64 %indvars.iv.next103 to i32
  %55 = icmp sgt i32 %5, %54
  %56 = select i1 %53, i1 %55, i1 false
  br i1 %56, label %20, label %._crit_edge.us, !llvm.loop !94

._crit_edge.us:                                   ; preds = %47, %20, %31
  %.167.us = phi nsz float [ %35, %31 ], [ %.06683.us, %20 ], [ %51, %47 ]
  %.1.us = phi nsz float [ %36, %31 ], [ %.06584.us, %20 ], [ %52, %47 ]
  %57 = fdiv nsz float %.167.us, %.1.us
  %58 = tail call i64 @llvm.lrint.i64.f32(float %57)
  %59 = trunc i64 %58 to i8
  %60 = getelementptr inbounds nuw i8, ptr %1, i64 %indvars.iv107
  store i8 %59, ptr %60, align 1, !tbaa !80
  %indvars.iv.next108 = add nuw nsw i64 %indvars.iv107, 1
  %exitcond111.not = icmp eq i64 %indvars.iv.next108, %wide.trip.count110
  br i1 %exitcond111.not, label %._crit_edge97, label %.lr.ph.us, !llvm.loop !95

._crit_edge97:                                    ; preds = %.lr.ph96.split, %._crit_edge.us, %9
  ret void

.lr.ph96.split:                                   ; preds = %.lr.ph96.split.preheader, %.lr.ph96.split
  %indvars.iv = phi i64 [ 0, %.lr.ph96.split.preheader ], [ %indvars.iv.next, %.lr.ph96.split ]
  %61 = getelementptr inbounds nuw i8, ptr %0, i64 %indvars.iv
  %62 = load i8, ptr %61, align 1, !tbaa !80
  %63 = uitofp i8 %62 to float
  %64 = tail call i64 @llvm.lrint.i64.f32(float %63)
  %65 = trunc i64 %64 to i8
  %66 = getelementptr inbounds nuw i8, ptr %1, i64 %indvars.iv
  store i8 %65, ptr %66, align 1, !tbaa !80
  %indvars.iv.next = add nuw nsw i64 %indvars.iv, 1
  %exitcond.not = icmp eq i64 %indvars.iv.next, %wide.trip.count
  br i1 %exitcond.not, label %._crit_edge97, label %.lr.ph96.split, !llvm.loop !95
}